target datalayout = "e-m:e-p270:32:32-p271:32:32-p272:64:64-i64:64-i128:128-f80:128-n8:16:32:64-S128"
target triple = "x86_64-unknown-linux-gnu"

%class.JSONStringValueSerializer = type <{ %"class.base::ValueSerializer", ptr, i8, [7 x i8] }>
%"class.base::ValueSerializer" = type { ptr }

@_ZTV25JSONStringValueSerializer = dso_local unnamed_addr constant { [5 x ptr] } { [5 x ptr] [ptr null, ptr @_ZTI25JSONStringValueSerializer, ptr @_ZN25JSONStringValueSerializerD1Ev, ptr @_ZN25JSONStringValueSerializerD0Ev, ptr @_ZN25JSONStringValueSerializer9SerializeERKN4base5ValueE] }, align 8
@_ZTVN4base15ValueSerializerE = external unnamed_addr constant { [5 x ptr] }, align 8

; Function Attrs: mustprogress nounwind uwtable
define linkonce_odr dso_local void @_ZN4base15ValueSerializerC2Ev(ptr noundef nonnull align 8 dereferenceable(8) %this) unnamed_addr #0 comdat align 2 {
entry:
  %this.addr = alloca ptr, align 8
  store ptr %this, ptr %this.addr, align 8
  %this1 = load ptr, ptr %this.addr, align 8
  store ptr getelementptr inbounds ({ [5 x ptr] }, ptr @_ZTVN4base15ValueSerializerE, i32 0, i32 0, i32 2), ptr %this1, align 8
  ret void
}

; Function Attrs: mustprogress nounwind uwtable
define dso_local void @_ZN25JSONStringValueSerializerC2EPNSt7__cxx1112basic_stringIcSt11char_traitsIcESaIcEEE(ptr noundef nonnull align 8 dereferenceable(17) %this, ptr noundef %json_string) unnamed_addr #0 align 2 {
entry:
  %this.addr = alloca ptr, align 8
  %json_string.addr = alloca ptr, align 8
  store ptr %this, ptr %this.addr, align 8
  store ptr %json_string, ptr %json_string.addr, align 8
  %this1 = load ptr, ptr %this.addr, align 8
  call void @_ZN4base15ValueSerializerC2Ev(ptr noundef nonnull align 8 dereferenceable(8) %this1) #6
  store ptr getelementptr inbounds ({ [5 x ptr] }, ptr @_ZTV25JSONStringValueSerializer, i32 0, i32 0, i32 2), ptr %this1, align 8
  %json_string_ = getelementptr inbounds %class.JSONStringValueSerializer, ptr %this1, i32 0, i32 1
  %0 = load ptr, ptr %json_string.addr, align 8
  store ptr %0, ptr %json_string_, align 8
  %pretty_print_ = getelementptr inbounds %class.JSONStringValueSerializer, ptr %this1, i32 0, i32 2
  store i8 0, ptr %pretty_print_, align 8
  ret void
}