; Function Attrs: mustprogress nofree norecurse nosync nounwind willreturn memory(argmem: write) uwtable
define dso_local void @_ZN25JSONStringValueSerializerC2EPNSt7__cxx1112basic_stringIcSt11char_traitsIcESaIcEEE(ptr nocapture noundef nonnull writeonly align 8 dereferenceable(17) %this, ptr noundef %json_string) unnamed_addr #0 align 2 {
entry:
  store ptr getelementptr inbounds ({ [5 x ptr] }, ptr @_ZTV25JSONStringValueSerializer, i64 0, i32 0, i64 2), ptr %this, align 8
  %json_string_ = getelementptr inbounds i8, ptr %this, i64 8
  store ptr %json_string, ptr %json_string_, align 8
  %pretty_print_ = getelementptr inbounds i8, ptr %this, i64 16
  store i8 0, ptr %pretty_print_, align 8
  ret void
}